(dp0
S'METTS MARK'
p1
(dp2
S'to_messages'
p3
I807
sS'deferral_payments'
p4
S'NaN'
p5
sS'expenses'
p6
I94299
sS'poi'
p7
I00
sS'deferred_income'
p8
g5
sS'email_address'
p9
S'mark.metts@enron.com'
p10
sS'long_term_incentive'
p11
g5
sS'restricted_stock_deferred'
p12
g5
sS'shared_receipt_with_poi'
p13
I702
sS'loan_advances'
p14
g5
sS'from_messages'
p15
I29
sS'other'
p16
I1740
sS'director_fees'
p17
g5
sS'biggest_expenses'
p18
cnumpy.core.multiarray
scalar
p19
(cnumpy
dtype
p20
(S'f8'
p21
I0
I1
tp22
Rp23
(I3
S'<'
p24
NNNI-1
I-1
I0
tp25
bS'\xc8\x9d-\x1f\xb1a\xda?'
p26
tp27
Rp28
sS'bonus'
p29
I600000
sS'total_stock_value'
p30
I585062
sS'from_poi_to_this_person'
p31
I38
sS'from_this_person_to_poi'
p32
I1
sS'restricted_stock'
p33
I585062
sS'salary'
p34
I365788
sS'total_payments'
p35
I1061827
sS'percentual_exercised'
p36
g19
(g23
S'\x00\x00\x00\x00\x00\x00\x00\x00'
p37
tp38
Rp39
sS'exercised_stock_options'
p40
g5
ssS'BAXTER JOHN C'
p41
(dp42
g3
g5
sg4
I1295738
sg6
I11200
sg7
I00
sg8
I-1386055
sg9
g5
sg11
I1586055
sg12
g5
sg13
g5
sg14
g5
sg15
g5
sg16
I2660303
sg17
g5
sg18
g19
(g23
S'S\x98\xebM&\x11\xa9?'
p43
tp44
Rp45
sg29
I1200000
sg30
I10623258
sg31
g5
sg32
g5
sg33
I3942714
sg34
I267102
sg35
I5634343
sg36
g19
(g23
S'*R\xbd+D\xc2l?'
p46
tp47
Rp48
sg40
I6680544
ssS'ELLIOTT STEVEN'
p49
(dp50
g3
g5
sg4
g5
sg6
I78552
sg7
I00
sg8
I-400729
sg9
S'steven.elliott@enron.com'
p51
sg11
g5
sg12
g5
sg13
g5
sg14
g5
sg15
g5
sg16
I12961
sg17
g5
sg18
g19
(g23
S'\xe6\x7f\x8ad\xe4\xf9\xd5?'
p52
tp53
Rp54
sg29
I350000
sg30
I6678735
sg31
g5
sg32
g5
sg33
I1788391
sg34
I170941
sg35
I211725
sg36
g19
(g23
S'\x12J\xf7b\xe1\x81\xb1?'
p55
tp56
Rp57
sg40
I4890344
ssS'CORDES WILLIAM R'
p58
(dp59
g3
I764
sg4
g5
sg6
g5
sg7
I00
sg8
g5
sg9
S'bill.cordes@enron.com'
p60
sg11
g5
sg12
g5
sg13
I58
sg14
g5
sg15
I12
sg16
g5
sg17
g5
sg18
g19
(g23
S'\x00\x00\x00\x00\x00\x00\x00\x00'
p61
tp62
Rp63
sg29
g5
sg30
I1038185
sg31
I10
sg32
I0
sg33
I386335
sg34
g5
sg35
g5
sg36
g19
(g23
S'\x00\x00\x00\x00\x00\x00\x00\x00'
p64
tp65
Rp66
sg40
I651850
ssS'HANNON KEVIN P'
p67
(dp68
g3
I1045
sg4
g5
sg6
I34039
sg7
I01
sg8
I-3117011
sg9
S'kevin.hannon@enron.com'
p69
sg11
I1617011
sg12
g5
sg13
I1035
sg14
g5
sg15
I32
sg16
I11350
sg17
g5
sg18
g19
(g23
S' \xcbB\x9b\xbe\x0b\xc3?'
p70
tp71
Rp72
sg29
I1500000
sg30
I6391065
sg31
I32
sg32
I21
sg33
I853064
sg34
I243293
sg35
I288682
sg36
g19
(g23
S'\rfO3\xdb\x14\xad?'
p73
tp74
Rp75
sg40
I5538001
ssS'MORDAUNT KRISTINA M'
p76
(dp77
g3
g5
sg4
g5
sg6
I35018
sg7
I00
sg8
g5
sg9
S'kristina.mordaunt@enron.com'
p78
sg11
g5
sg12
g5
sg13
g5
sg14
g5
sg15
g5
sg16
I1411
sg17
g5
sg18
g19
(g23
S'\xba\x9d\x97\xf9\xf9\x97\xc3?'
p79
tp80
Rp81
sg29
I325000
sg30
I208510
sg31
g5
sg32
g5
sg33
I208510
sg34
I267093
sg35
I628522
sg36
g19
(g23
S'\x00\x00\x00\x00\x00\x00\x00\x00'
p82
tp83
Rp84
sg40
g5
ssS'MEYER ROCKFORD G'
p85
(dp86
g3
I232
sg4
I1848227
sg6
g5
sg7
I00
sg8
g5
sg9
S'rockford.meyer@enron.com'
p87
sg11
g5
sg12
g5
sg13
I22
sg14
g5
sg15
I28
sg16
g5
sg17
g5
sg18
g19
(g23
S'\x00\x00\x00\x00\x00\x00\x00\x00'
p88
tp89
Rp90
sg29
g5
sg30
I955873
sg31
I0
sg32
I0
sg33
I462384
sg34
g5
sg35
I1848227
sg36
g19
(g23
S'\xdd\x9b\x1f8\xb4\xe7I?'
p91
tp92
Rp93
sg40
I493489
ssS'MCMAHON JEFFREY'
p94
(dp95
g3
I2355
sg4
g5
sg6
I137108
sg7
I00
sg8
g5
sg9
S'jeffrey.mcmahon@enron.com'
p96
sg11
I694862
sg12
g5
sg13
I2228
sg14
g5
sg15
I48
sg16
I297353
sg17
g5
sg18
g19
(g23
S'A*\x13\xee\xd5-\xe3?'
p97
tp98
Rp99
sg29
I2600000
sg30
I1662855
sg31
I58
sg32
I26
sg33
I558801
sg34
I370448
sg35
I4099771
sg36
g19
(g23
S'\xe7\xb0a\x85\x93 J?'
p100
tp101
Rp102
sg40
I1104054
ssS'HORTON STANLEY C'
p103
(dp104
g3
I2350
sg4
I3131860
sg6
g5
sg7
I00
sg8
g5
sg9
S'stanley.horton@enron.com'
p105
sg11
g5
sg12
g5
sg13
I1074
sg14
g5
sg15
I1073
sg16
g5
sg17
g5
sg18
g19
(g23
S'\x00\x00\x00\x00\x00\x00\x00\x00'
p106
tp107
Rp108
sg29
g5
sg30
I7256648
sg31
I44
sg32
I15
sg33
I2046079
sg34
g5
sg35
I3131860
sg36
g19
(g23
S'\xd5\x0e\x01\x88M-t?'
p109
tp110
Rp111
sg40
I5210569
ssS'PIPER GREGORY F'
p112
(dp113
g3
I1238
sg4
I1130036
sg6
I43057
sg7
I00
sg8
I-33333
sg9
S'greg.piper@enron.com'
p114
sg11
g5
sg12
I-409554
sg13
I742
sg14
g5
sg15
I222
sg16
I778
sg17
g5
sg18
g19
(g23
S'\xe1\x1b}~{\x17\xc8?'
p115
tp116
Rp117
sg29
I400000
sg30
I880290
sg31
I61
sg32
I48
sg33
I409554
sg34
I197091
sg35
I1737629
sg36
g19
(g23
S'+\x8au\x93Q\x93X?'
p118
tp119
Rp120
sg40
I880290
ssS'HUMPHREY GENE E'
p121
(dp122
g3
I128
sg4
I2964506
sg6
I4994
sg7
I00
sg8
g5
sg9
S'gene.humphrey@enron.com'
p123
sg11
g5
sg12
g5
sg13
I119
sg14
g5
sg15
I17
sg16
g5
sg17
g5
sg18
g19
(g23
S'\xfbo\xcd\xec\xb8Z\x96?'
p124
tp125
Rp126
sg29
g5
sg30
I2282768
sg31
I10
sg32
I17
sg33
g5
sg34
I130724
sg35
I3100224
sg36
g19
(g23
S'\xf7<\xab\xb3\x0e\xdca?'
p127
tp128
Rp129
sg40
I2282768
ssS'UMANOFF ADAM S'
p130
(dp131
g3
I111
sg4
g5
sg6
I53122
sg7
I00
sg8
g5
sg9
S'adam.umanoff@enron.com'
p132
sg11
g5
sg12
g5
sg13
I41
sg14
g5
sg15
I18
sg16
g5
sg17
g5
sg18
g19
(g23
S'jZlE1\xb9\xcd?'
p133
tp134
Rp135
sg29
I788750
sg30
g5
sg31
I12
sg32
I0
sg33
g5
sg34
I288589
sg35
I1130461
sg36
g19
(g23
S'\x00\x00\x00\x00\x00\x00\x00\x00'
p136
tp137
Rp138
sg40
g5
ssS'BLACHMAN JEREMY M'
p139
(dp140
g3
I2475
sg4
g5
sg6
I84208
sg7
I00
sg8
g5
sg9
S'jeremy.blachman@enron.com'
p141
sg11
I831809
sg12
g5
sg13
I2326
sg14
g5
sg15
I14
sg16
I272
sg17
g5
sg18
g19
(g23
S'o\x17\xdc\x87\xf9\x8e\xd7?'
p142
tp143
Rp144
sg29
I850000
sg30
I954354
sg31
I25
sg32
I2
sg33
I189041
sg34
I248546
sg35
I2014835
sg36
g19
(g23
S'P\x8c\x02\xa0\x12mR?'
p145
tp146
Rp147
sg40
I765313
ssS'SUNDE MARTIN'
p148
(dp149
g3
I2647
sg4
g5
sg6
g5
sg7
I00
sg8
g5
sg9
S'marty.sunde@enron.com'
p150
sg11
I476451
sg12
g5
sg13
I2565
sg14
g5
sg15
I38
sg16
I111122
sg17
g5
sg18
g19
(g23
S'\x00\x00\x00\x00\x00\x00\x00\x00'
p151
tp152
Rp153
sg29
I700000
sg30
I698920
sg31
I37
sg32
I13
sg33
I698920
sg34
I257486
sg35
I1545059
sg36
g19
(g23
S'\x00\x00\x00\x00\x00\x00\x00\x00'
p154
tp155
Rp156
sg40
g5
ssS'GIBBS DANA R'
p157
(dp158
g3
I169
sg4
I504610
sg6
g5
sg7
I00
sg8
g5
sg9
S'dana.gibbs@enron.com'
p159
sg11
I461912
sg12
g5
sg13
I23
sg14
g5
sg15
I12
sg16
g5
sg17
g5
sg18
g19
(g23
S'\x00\x00\x00\x00\x00\x00\x00\x00'
p160
tp161
Rp162
sg29
g5
sg30
I2218275
sg31
I0
sg32
I0
sg33
g5
sg34
g5
sg35
I966522
sg36
g19
(g23
S'\x8a\x16\xa6[\x85\xd5{?'
p163
tp164
Rp165
sg40
I2218275
ssS'LOWRY CHARLES P'
p166
(dp167
g3
g5
sg4
g5
sg6
g5
sg7
I00
sg8
g5
sg9
g5
sg11
g5
sg12
I-153686
sg13
g5
sg14
g5
sg15
g5
sg16
g5
sg17
g5
sg18
g19
(g23
S'\x00\x00\x00\x00\x00\x00\x00\x00'
p168
tp169
Rp170
sg29
g5
sg30
I372205
sg31
g5
sg32
g5
sg33
I153686
sg34
g5
sg35
g5
sg36
g19
(g23
S'\x00\x00\x00\x00\x00\x00\x00\x00'
p171
tp172
Rp173
sg40
I372205
ssS'COLWELL WESLEY'
p174
(dp175
g3
I1758
sg4
I27610
sg6
I16514
sg7
I01
sg8
I-144062
sg9
S'wes.colwell@enron.com'
p176
sg11
g5
sg12
g5
sg13
I1132
sg14
g5
sg15
I40
sg16
I101740
sg17
g5
sg18
g19
(g23
S'\xca\xfa\xfc\xd0\xedz\xb2?'
p177
tp178
Rp179
sg29
I1200000
sg30
I698242
sg31
I240
sg32
I11
sg33
I698242
sg34
I288542
sg35
I1490344
sg36
g19
(g23
S'\x00\x00\x00\x00\x00\x00\x00\x00'
p180
tp181
Rp182
sg40
g5
ssS'MULLER MARK S'
p183
(dp184
g3
I136
sg4
I842924
sg6
g5
sg7
I00
sg8
I-719000
sg9
S's..muller@enron.com'
p185
sg11
I1725545
sg12
g5
sg13
I114
sg14
g5
sg15
I16
sg16
I947
sg17
g5
sg18
g19
(g23
S'\x00\x00\x00\x00\x00\x00\x00\x00'
p186
tp187
Rp188
sg29
I1100000
sg30
I1416848
sg31
I12
sg32
I0
sg33
I360528
sg34
I251654
sg35
I3202070
sg36
g19
(g23
S'G\xcd|\xa0\xbb\x00P?'
p189
tp190
Rp191
sg40
I1056320
ssS'JACKSON CHARLENE R'
p192
(dp193
g3
I258
sg4
g5
sg6
I10181
sg7
I00
sg8
g5
sg9
S'charlene.jackson@enron.com'
p194
sg11
g5
sg12
g5
sg13
I117
sg14
g5
sg15
I56
sg16
I2435
sg17
g5
sg18
g19
(g23
S'AY\xe3\xb8M\xc9\xa6?'
p195
tp196
Rp197
sg29
I250000
sg30
I725735
sg31
I25
sg32
I19
sg33
I540672
sg34
I288558
sg35
I551174
sg36
g19
(g23
S'\xb7b\xc3\xd4\xb0IP?'
p198
tp199
Rp200
sg40
I185063
ssS'WESTFAHL RICHARD K'
p201
(dp202
g3
g5
sg4
g5
sg6
I51870
sg7
I00
sg8
I-10800
sg9
S'dick.westfahl@enron.com'
p203
sg11
I256191
sg12
g5
sg13
g5
sg14
g5
sg15
g5
sg16
I401130
sg17
g5
sg18
g19
(g23
S'*\x937&\xdb\x05\xcd?'
p204
tp205
Rp206
sg29
g5
sg30
I384930
sg31
g5
sg32
g5
sg33
I384930
sg34
I63744
sg35
I762135
sg36
g19
(g23
S'\x00\x00\x00\x00\x00\x00\x00\x00'
p207
tp208
Rp209
sg40
g5
ssS'WALTERS GARETH W'
p210
(dp211
g3
g5
sg4
I53625
sg6
I33785
sg7
I00
sg8
g5
sg9
g5
sg11
g5
sg12
g5
sg13
g5
sg14
g5
sg15
g5
sg16
g5
sg17
g5
sg18
g19
(g23
S'!\xedy\x92\\\xe7\xc2?'
p212
tp213
Rp214
sg29
g5
sg30
I1030329
sg31
g5
sg32
g5
sg33
g5
sg34
g5
sg35
I87410
sg36
g19
(g23
S'\xe7\xecWCp\xde\xa1?'
p215
tp216
Rp217
sg40
I1030329
ssS'WALLS JR ROBERT H'
p218
(dp219
g3
I671
sg4
g5
sg6
I50936
sg7
I00
sg8
g5
sg9
S'rob.walls@enron.com'
p220
sg11
I540751
sg12
g5
sg13
I215
sg14
g5
sg15
I146
sg16
I2
sg17
g5
sg18
g19
(g23
S'_\xa5\xad\xe7\x11\x80\xcc?'
p221
tp222
Rp223
sg29
I850000
sg30
I5898997
sg31
I17
sg32
I0
sg33
I1552453
sg34
I357091
sg35
I1798780
sg36
g19
(g23
S'\x83\xf2\x18\x9f\x08N}?'
p224
tp225
Rp226
sg40
I4346544
ssS'KITCHEN LOUISE'
p227
(dp228
g3
I8305
sg4
g5
sg6
I5774
sg7
I00
sg8
g5
sg9
S'louise.kitchen@enron.com'
p229
sg11
g5
sg12
g5
sg13
I3669
sg14
g5
sg15
I1728
sg16
I93925
sg17
g5
sg18
g19
(g23
S'\xa7\xb5^%\x8a\xd8\x99?'
p230
tp231
Rp232
sg29
I3100000
sg30
I547143
sg31
I251
sg32
I194
sg33
I466101
sg34
I271442
sg35
I3471141
sg36
g19
(g23
S'|\xdf.\xb5\x11\x1f\x12?'
p233
tp234
Rp235
sg40
I81042
ssS'CHAN RONNIE'
p236
(dp237
g3
g5
sg4
g5
sg6
g5
sg7
I00
sg8
I-98784
sg9
g5
sg11
g5
sg12
I-32460
sg13
g5
sg14
g5
sg15
g5
sg16
g5
sg17
I98784
sg18
g19
(g23
S'\x00\x00\x00\x00\x00\x00\x00\x00'
p238
tp239
Rp240
sg29
g5
sg30
g5
sg31
g5
sg32
g5
sg33
I32460
sg34
g5
sg35
g5
sg36
g19
(g23
S'\x00\x00\x00\x00\x00\x00\x00\x00'
p241
tp242
Rp243
sg40
g5
ssS'SHANKMAN JEFFREY A'
p244
(dp245
g3
I3221
sg4
g5
sg6
I178979
sg7
I00
sg8
g5
sg9
S'jeffrey.shankman@enron.com'
p246
sg11
I554422
sg12
g5
sg13
I1730
sg14
g5
sg15
I2681
sg16
I1191
sg17
g5
sg18
g19
(g23
S'>\x82\x8dQ<\t\xe9?'
p247
tp248
Rp249
sg29
I2000000
sg30
I2072035
sg31
I94
sg32
I83
sg33
I630137
sg34
I304110
sg35
I3038702
sg36
g19
(g23
S'(Q\xb7\xcc\xc4\x04W?'
p250
tp251
Rp252
sg40
I1441898
ssS'WODRASKA JOHN'
p253
(dp254
g3
g5
sg4
g5
sg6
g5
sg7
I00
sg8
g5
sg9
S'john.wodraska@enron.com'
p255
sg11
g5
sg12
g5
sg13
g5
sg14
g5
sg15
g5
sg16
I189583
sg17
g5
sg18
g19
(g23
S'\x00\x00\x00\x00\x00\x00\x00\x00'
p256
tp257
Rp258
sg29
g5
sg30
g5
sg31
g5
sg32
g5
sg33
g5
sg34
g5
sg35
I189583
sg36
g19
(g23
S'\x00\x00\x00\x00\x00\x00\x00\x00'
p259
tp260
Rp261
sg40
g5
ssS'BERGSIEKER RICHARD P'
p262
(dp263
g3
I383
sg4
g5
sg6
I59175
sg7
I00
sg8
I-485813
sg9
S'rick.bergsieker@enron.com'
p264
sg11
I180250
sg12
g5
sg13
I233
sg14
g5
sg15
I59
sg16
I427316
sg17
g5
sg18
g19
(g23
S'\xac\xaa\x9a\xa7\x1c\x8e\xd0?'
p265
tp266
Rp267
sg29
I250000
sg30
I659249
sg31
I4
sg32
I0
sg33
I659249
sg34
I187922
sg35
I618850
sg36
g19
(g23
S'\x00\x00\x00\x00\x00\x00\x00\x00'
p268
tp269
Rp270
sg40
g5
ssS'URQUHART JOHN A'
p271
(dp272
g3
g5
sg4
g5
sg6
I228656
sg7
I00
sg8
I-36666
sg9
g5
sg11
g5
sg12
g5
sg13
g5
sg14
g5
sg15
g5
sg16
g5
sg17
I36666
sg18
g19
(g23
S'\xe5\x8b\xc4\x17+\xfc\xef?'
p273
tp274
Rp275
sg29
g5
sg30
g5
sg31
g5
sg32
g5
sg33
g5
sg34
g5
sg35
I228656
sg36
g19
(g23
S'\x00\x00\x00\x00\x00\x00\x00\x00'
p276
tp277
Rp278
sg40
g5
ssS'BIBI PHILIPPE A'
p279
(dp280
g3
I1607
sg4
g5
sg6
I38559
sg7
I00
sg8
g5
sg9
S'philippe.bibi@enron.com'
p281
sg11
I369721
sg12
g5
sg13
I1336
sg14
g5
sg15
I40
sg16
I425688
sg17
g5
sg18
g19
(g23
S'\xb9\xca\xfai0\x93\xc5?'
p282
tp283
Rp284
sg29
I1000000
sg30
I1843816
sg31
I23
sg32
I8
sg33
I378082
sg34
I213625
sg35
I2047593
sg36
g19
(g23
S'\\#\xe8\xc3\xd2\\a?'
p285
tp286
Rp287
sg40
I1465734
ssS'RIEKER PAULA H'
p288
(dp289
g3
I1328
sg4
I214678
sg6
I33271
sg7
I01
sg8
I-100000
sg9
S'paula.rieker@enron.com'
p290
sg11
g5
sg12
g5
sg13
I1258
sg14
g5
sg15
I82
sg16
I1950
sg17
g5
sg18
g19
(g23
S'\x91\x01\xab|\xbc\x9d\xc2?'
p291
tp292
Rp293
sg29
I700000
sg30
I1918887
sg31
I35
sg32
I48
sg33
I283649
sg34
I249201
sg35
I1099100
sg36
g19
(g23
S'\x00K\xd2\xe7\x17\x0br?'
p294
tp295
Rp296
sg40
I1635238
ssS'WHALEY DAVID A'
p297
(dp298
g3
g5
sg4
g5
sg6
g5
sg7
I00
sg8
g5
sg9
g5
sg11
g5
sg12
g5
sg13
g5
sg14
g5
sg15
g5
sg16
g5
sg17
g5
sg18
g19
(g23
S'\x00\x00\x00\x00\x00\x00\x00\x00'
p299
tp300
Rp301
sg29
g5
sg30
I98718
sg31
g5
sg32
g5
sg33
g5
sg34
g5
sg35
g5
sg36
g19
(g23
S'\x00\x00\x00\x00\x00\x00\x00\x00'
p302
tp303
Rp304
sg40
I98718
ssS'BECK SALLY W'
p305
(dp306
g3
I7315
sg4
g5
sg6
I37172
sg7
I00
sg8
g5
sg9
S'sally.beck@enron.com'
p307
sg11
g5
sg12
g5
sg13
I2639
sg14
g5
sg15
I4343
sg16
I566
sg17
g5
sg18
g19
(g23
S'\nUe\xeb\x83\xcc\xc4?'
p308
tp309
Rp310
sg29
I700000
sg30
I126027
sg31
I144
sg32
I386
sg33
I126027
sg34
I231330
sg35
I969068
sg36
g19
(g23
S'\x00\x00\x00\x00\x00\x00\x00\x00'
p311
tp312
Rp313
sg40
g5
ssS'HAUG DAVID L'
p314
(dp315
g3
I573
sg4
g5
sg6
I475
sg7
I00
sg8
g5
sg9
S'david.haug@enron.com'
p316
sg11
g5
sg12
g5
sg13
I471
sg14
g5
sg15
I19
sg16
g5
sg17
g5
sg18
g19
(g23
S'\x14\x95M\x90~\x02a?'
p317
tp318
Rp319
sg29
g5
sg30
I2217299
sg31
I4
sg32
I7
sg33
I2217299
sg34
g5
sg35
I475
sg36
g19
(g23
S'\x00\x00\x00\x00\x00\x00\x00\x00'
p320
tp321
Rp322
sg40
g5
ssS'ECHOLS JOHN B'
p323
(dp324
g3
g5
sg4
g5
sg6
I21530
sg7
I00
sg8
g5
sg9
S'john.echols@enron.com'
p325
sg11
I2234774
sg12
g5
sg13
g5
sg14
g5
sg15
g5
sg16
I53775
sg17
g5
sg18
g19
(g23
S'\xab\xb3\x9b\x80\xe9\x17\xb8?'
p326
tp327
Rp328
sg29
I200000
sg30
I1008941
sg31
g5
sg32
g5
sg33
I407503
sg34
I182245
sg35
I2692324
sg36
g19
(g23
S'[+jKb\xacE?'
p329
tp330
Rp331
sg40
I601438
ssS'MENDELSOHN JOHN'
p332
(dp333
g3
g5
sg4
g5
sg6
I148
sg7
I00
sg8
I-103750
sg9
g5
sg11
g5
sg12
g5
sg13
g5
sg14
g5
sg15
g5
sg16
g5
sg17
I103750
sg18
g19
(g23
S'I\x82\x95:\x133E?'
p334
tp335
Rp336
sg29
g5
sg30
g5
sg31
g5
sg32
g5
sg33
g5
sg34
g5
sg35
I148
sg36
g19
(g23
S'\x00\x00\x00\x00\x00\x00\x00\x00'
p337
tp338
Rp339
sg40
g5
ssS'HICKERSON GARY J'
p340
(dp341
g3
I1320
sg4
g5
sg6
I98849
sg7
I00
sg8
g5
sg9
S'gary.hickerson@enron.com'
p342
sg11
I69223
sg12
g5
sg13
I900
sg14
g5
sg15
I27
sg16
I1936
sg17
g5
sg18
g19
(g23
S'\x84\x94"\x11\x90\xa7\xdb?'
p343
tp344
Rp345
sg29
I1700000
sg30
I441096
sg31
I40
sg32
I1
sg33
I441096
sg34
I211788
sg35
I2081796
sg36
g19
(g23
S'\x00\x00\x00\x00\x00\x00\x00\x00'
p346
tp347
Rp348
sg40
g5
ssS'CLINE KENNETH W'
p349
(dp350
g3
g5
sg4
g5
sg6
g5
sg7
I00
sg8
g5
sg9
g5
sg11
g5
sg12
I-472568
sg13
g5
sg14
g5
sg15
g5
sg16
g5
sg17
g5
sg18
g19
(g23
S'\x00\x00\x00\x00\x00\x00\x00\x00'
p351
tp352
Rp353
sg29
g5
sg30
I189518
sg31
g5
sg32
g5
sg33
I662086
sg34
g5
sg35
g5
sg36
g19
(g23
S'\x00\x00\x00\x00\x00\x00\x00\x00'
p354
tp355
Rp356
sg40
g5
ssS'LEWIS RICHARD'
p357
(dp358
g3
I952
sg4
g5
sg6
g5
sg7
I00
sg8
g5
sg9
S'richard.lewis@enron.com'
p359
sg11
g5
sg12
g5
sg13
I739
sg14
g5
sg15
I26
sg16
g5
sg17
g5
sg18
g19
(g23
S'\x00\x00\x00\x00\x00\x00\x00\x00'
p360
tp361
Rp362
sg29
g5
sg30
I850477
sg31
I10
sg32
I0
sg33
g5
sg34
g5
sg35
g5
sg36
g19
(g23
S'\x00\x00\x00\x00\x00\x00\x00\x00'
p363
tp364
Rp365
sg40
I850477
ssS'HAYES ROBERT E'
p366
(dp367
g3
I504
sg4
I7961
sg6
g5
sg7
I00
sg8
g5
sg9
S'robert.hayes@enron.com'
p368
sg11
g5
sg12
g5
sg13
I50
sg14
g5
sg15
I12
sg16
g5
sg17
g5
sg18
g19
(g23
S'\x00\x00\x00\x00\x00\x00\x00\x00'
p369
tp370
Rp371
sg29
g5
sg30
I151418
sg31
I16
sg32
I0
sg33
I151418
sg34
g5
sg35
I7961
sg36
g19
(g23
S'\x00\x00\x00\x00\x00\x00\x00\x00'
p372
tp373
Rp374
sg40
g5
ssS'MCCARTY DANNY J'
p375
(dp376
g3
I1433
sg4
g5
sg6
g5
sg7
I00
sg8
g5
sg9
S'danny.mccarty@enron.com'
p377
sg11
g5
sg12
g5
sg13
I508
sg14
g5
sg15
I215
sg16
g5
sg17
g5
sg18
g19
(g23
S'\x00\x00\x00\x00\x00\x00\x00\x00'
p378
tp379
Rp380
sg29
g5
sg30
I758931
sg31
I25
sg32
I2
sg33
I94556
sg34
g5
sg35
g5
sg36
g19
(g23
S'\x00\x00\x00\x00\x00\x00\x00\x00'
p381
tp382
Rp383
sg40
I664375
ssS'KOPPER MICHAEL J'
p384
(dp385
g3
g5
sg4
g5
sg6
I118134
sg7
I01
sg8
g5
sg9
S'michael.kopper@enron.com'
p386
sg11
I602671
sg12
g5
sg13
g5
sg14
g5
sg15
g5
sg16
I907502
sg17
g5
sg18
g19
(g23
S'\x80\xfes\x81`\x86\xe0?'
p387
tp388
Rp389
sg29
I800000
sg30
I985032
sg31
g5
sg32
g5
sg33
I985032
sg34
I224305
sg35
I2652612
sg36
g19
(g23
S'\x00\x00\x00\x00\x00\x00\x00\x00'
p390
tp391
Rp392
sg40
g5
ssS'LEFF DANIEL P'
p393
(dp394
g3
I2822
sg4
g5
sg6
g5
sg7
I00
sg8
g5
sg9
S'dan.leff@enron.com'
p395
sg11
I1387399
sg12
g5
sg13
I2672
sg14
g5
sg15
I63
sg16
I3083
sg17
g5
sg18
g19
(g23
S'\x00\x00\x00\x00\x00\x00\x00\x00'
p396
tp397
Rp398
sg29
I1000000
sg30
I360528
sg31
I67
sg32
I14
sg33
I360528
sg34
I273746
sg35
I2664228
sg36
g19
(g23
S'\x00\x00\x00\x00\x00\x00\x00\x00'
p399
tp400
Rp401
sg40
g5
ssS'LAVORATO JOHN J'
p402
(dp403
g3
I7259
sg4
g5
sg6
I49537
sg7
I00
sg8
g5
sg9
S'john.lavorato@enron.com'
p404
sg11
I2035380
sg12
g5
sg13
I3962
sg14
g5
sg15
I2585
sg16
I1552
sg17
g5
sg18
g19
(g23
S'\x8a\xd0\x9d`\xad\xb7\xcb?'
p405
tp406
Rp407
sg29
I8000000
sg30
I5167144
sg31
I528
sg32
I411
sg33
I1008149
sg34
I339288
sg35
I10425757
sg36
g19
(g23
S'\x02m\x9d{\xf9YS?'
p408
tp409
Rp410
sg40
I4158995
ssS'BERBERIAN DAVID'
p411
(dp412
g3
g5
sg4
g5
sg6
I11892
sg7
I00
sg8
g5
sg9
S'david.berberian@enron.com'
p413
sg11
g5
sg12
g5
sg13
g5
sg14
g5
sg15
g5
sg16
g5
sg17
g5
sg18
g19
(g23
S'\x1dT\xd9F\xa3\x9d\xaa?'
p414
tp415
Rp416
sg29
g5
sg30
I2493616
sg31
g5
sg32
g5
sg33
I869220
sg34
I216582
sg35
I228474
sg36
g19
(g23
S'\x0f/_\xeeU\x8e\x95?'
p417
tp418
Rp419
sg40
I1624396
ssS'DETMERING TIMOTHY J'
p420
(dp421
g3
g5
sg4
I875307
sg6
I52255
sg7
I00
sg8
I-775241
sg9
S'timothy.detmering@enron.com'
p422
sg11
I415657
sg12
I-315068
sg13
g5
sg14
g5
sg15
g5
sg16
I1105
sg17
g5
sg18
g19
(g23
S'\xe0\xff\xe2\xe0\x00=\xcd?'
p423
tp424
Rp425
sg29
I425000
sg30
I2027865
sg31
g5
sg32
g5
sg33
I315068
sg34
I210500
sg35
I1204583
sg36
g19
(g23
S'%tnZ\x8djt?'
p426
tp427
Rp428
sg40
I2027865
ssS'WAKEHAM JOHN'
p429
(dp430
g3
g5
sg4
g5
sg6
I103773
sg7
I00
sg8
g5
sg9
g5
sg11
g5
sg12
g5
sg13
g5
sg14
g5
sg15
g5
sg16
g5
sg17
I109298
sg18
g19
(g23
S'\xff\xd5\xdf18\x08\xdd?'
p431
tp432
Rp433
sg29
g5
sg30
g5
sg31
g5
sg32
g5
sg33
g5
sg34
g5
sg35
I213071
sg36
g19
(g23
S'\x00\x00\x00\x00\x00\x00\x00\x00'
p434
tp435
Rp436
sg40
g5
ssS'POWERS WILLIAM'
p437
(dp438
g3
I653
sg4
g5
sg6
g5
sg7
I00
sg8
I-17500
sg9
S'ken.powers@enron.com'
p439
sg11
g5
sg12
g5
sg13
I12
sg14
g5
sg15
I26
sg16
g5
sg17
I17500
sg18
g19
(g23
S'\x00\x00\x00\x00\x00\x00\x00\x00'
p440
tp441
Rp442
sg29
g5
sg30
g5
sg31
I0
sg32
I0
sg33
g5
sg34
g5
sg35
g5
sg36
g19
(g23
S'\x00\x00\x00\x00\x00\x00\x00\x00'
p443
tp444
Rp445
sg40
g5
ssS'GOLD JOSEPH'
p446
(dp447
g3
g5
sg4
g5
sg6
g5
sg7
I00
sg8
g5
sg9
S'joe.gold@enron.com'
p448
sg11
I304805
sg12
g5
sg13
g5
sg14
g5
sg15
g5
sg16
I819288
sg17
g5
sg18
g19
(g23
S'\x00\x00\x00\x00\x00\x00\x00\x00'
p449
tp450
Rp451
sg29
I750000
sg30
I877611
sg31
g5
sg32
g5
sg33
I441096
sg34
I272880
sg35
I2146973
sg36
g19
(g23
S'\xf4\xa8f\xe6\xd0\xb9C?'
p452
tp453
Rp454
sg40
I436515
ssS'BANNANTINE JAMES M'
p455
(dp456
g3
I566
sg4
g5
sg6
I56301
sg7
I00
sg8
I-5104
sg9
S'james.bannantine@enron.com'
p457
sg11
g5
sg12
I-560222
sg13
I465
sg14
g5
sg15
I29
sg16
I864523
sg17
g5
sg18
g19
(g23
S'\x12Q\xb9`\x8d\x80\xcf?'
p458
tp459
Rp460
sg29
g5
sg30
I5243487
sg31
I39
sg32
I0
sg33
I1757552
sg34
I477
sg35
I916197
sg36
g19
(g23
S'S\x9ay\xc2v\xc7\x8a?'
p461
tp462
Rp463
sg40
I4046157
ssS'DUNCAN JOHN H'
p464
(dp465
g3
g5
sg4
g5
sg6
g5
sg7
I00
sg8
I-25000
sg9
g5
sg11
g5
sg12
g5
sg13
g5
sg14
g5
sg15
g5
sg16
g5
sg17
I102492
sg18
g19
(g23
S'\x00\x00\x00\x00\x00\x00\x00\x00'
p466
tp467
Rp468
sg29
g5
sg30
I371750
sg31
g5
sg32
g5
sg33
g5
sg34
g5
sg35
I77492
sg36
g19
(g23
S'S\x02\x8cI\xed\x16\x8d?'
p469
tp470
Rp471
sg40
I371750
ssS'SHAPIRO RICHARD S'
p472
(dp473
g3
I15149
sg4
g5
sg6
I137767
sg7
I00
sg8
g5
sg9
S'richard.shapiro@enron.com'
p474
sg11
g5
sg12
g5
sg13
I4527
sg14
g5
sg15
I1215
sg16
I705
sg17
g5
sg18
g19
(g23
S'\x94\xe4\xcd7oE\xe3?'
p475
tp476
Rp477
sg29
I650000
sg30
I987001
sg31
I74
sg32
I65
sg33
I379164
sg34
I269076
sg35
I1057548
sg36
g19
(g23
S':\xfe\xc1t\xba\xe1[?'
p478
tp479
Rp480
sg40
I607837
ssS'SHERRIFF JOHN R'
p481
(dp482
g3
I3187
sg4
g5
sg6
g5
sg7
I00
sg8
g5
sg9
S'john.sherriff@enron.com'
p483
sg11
I554422
sg12
g5
sg13
I2103
sg14
g5
sg15
I92
sg16
I1852186
sg17
g5
sg18
g19
(g23
S'\x00\x00\x00\x00\x00\x00\x00\x00'
p484
tp485
Rp486
sg29
I1500000
sg30
I3128982
sg31
I28
sg32
I23
sg33
I1293424
sg34
I428780
sg35
I4335388
sg36
g19
(g23
S'\xbd\xdb\xa4\xd8\xe8\x89T?'
p487
tp488
Rp489
sg40
I1835558
ssS'SHELBY REX'
p490
(dp491
g3
I225
sg4
g5
sg6
I22884
sg7
I01
sg8
I-4167
sg9
S'rex.shelby@enron.com'
p492
sg11
g5
sg12
g5
sg13
I91
sg14
g5
sg15
I39
sg16
I1573324
sg17
g5
sg18
g19
(g23
S'\xb5\x93%O\xce\x9b\xb9?'
p493
tp494
Rp495
sg29
I200000
sg30
I2493616
sg31
I13
sg32
I14
sg33
I869220
sg34
I211844
sg35
I2003885
sg36
g19
(g23
S'[D\xecQh\xa9c?'
p496
tp497
Rp498
sg40
I1624396
ssS'LEMAISTRE CHARLES'
p499
(dp500
g3
g5
sg4
g5
sg6
g5
sg7
I00
sg8
I-25000
sg9
g5
sg11
g5
sg12
g5
sg13
g5
sg14
g5
sg15
g5
sg16
g5
sg17
I112492
sg18
g19
(g23
S'\x00\x00\x00\x00\x00\x00\x00\x00'
p501
tp502
Rp503
sg29
g5
sg30
I412878
sg31
g5
sg32
g5
sg33
g5
sg34
g5
sg35
I87492
sg36
g19
(g23
S':3\xfb&|\x9d\x8c?'
p504
tp505
Rp506
sg40
I412878
ssS'DEFFNER JOSEPH M'
p507
(dp508
g3
I714
sg4
g5
sg6
I41626
sg7
I00
sg8
g5
sg9
S'joseph.deffner@enron.com'
p509
sg11
I335349
sg12
g5
sg13
I552
sg14
g5
sg15
I74
sg16
I25553
sg17
g5
sg18
g19
(g23
S'QI|\x8b\x81J\xc7?'
p510
tp511
Rp512
sg29
I600000
sg30
I159211
sg31
I115
sg32
I4
sg33
I141833
sg34
I206121
sg35
I1208649
sg36
g19
(g23
S'\x9c\x14\xdei\xc4Q\x06?'
p513
tp514
Rp515
sg40
I17378
ssS'KISHKILL JOSEPH G'
p516
(dp517
g3
g5
sg4
g5
sg6
I116335
sg7
I00
sg8
I-51042
sg9
S'joe.kishkill@enron.com'
p518
sg11
g5
sg12
g5
sg13
g5
sg14
g5
sg15
g5
sg16
I465357
sg17
g5
sg18
g19
(g23
S'b\xf0^n\xf4E\xe0?'
p519
tp520
Rp521
sg29
g5
sg30
I1034346
sg31
g5
sg32
g5
sg33
I1034346
sg34
I174246
sg35
I704896
sg36
g19
(g23
S'\x00\x00\x00\x00\x00\x00\x00\x00'
p522
tp523
Rp524
sg40
g5
ssS'WHALLEY LAWRENCE G'
p525
(dp526
g3
I6019
sg4
g5
sg6
I57838
sg7
I00
sg8
g5
sg9
S'greg.whalley@enron.com'
p527
sg11
I808346
sg12
g5
sg13
I3920
sg14
g5
sg15
I556
sg16
I301026
sg17
g5
sg18
g19
(g23
S'\x0f6\xa4$[.\xd0?'
p528
tp529
Rp530
sg29
I3000000
sg30
I6079137
sg31
I186
sg32
I24
sg33
I2796177
sg34
I510364
sg35
I4677574
sg36
g19
(g23
S'S\xd8\xdc\xba\x01\x06a?'
p531
tp532
Rp533
sg40
I3282960
ssS'MCCONNELL MICHAEL S'
p534
(dp535
g3
I3329
sg4
g5
sg6
I81364
sg7
I00
sg8
g5
sg9
S'mike.mcconnell@enron.com'
p536
sg11
I554422
sg12
g5
sg13
I2189
sg14
g5
sg15
I2742
sg16
I540
sg17
g5
sg18
g19
(g23
S'<\x0c7\x9bI\xc3\xd6?'
p537
tp538
Rp539
sg29
I1100000
sg30
I3101279
sg31
I92
sg32
I194
sg33
I1478269
sg34
I365038
sg35
I2101364
sg36
g19
(g23
S'\x13\xff\x8c\xf1\xd1\xbbb?'
p540
tp541
Rp542
sg40
I1623010
ssS'PIRO JIM'
p543
(dp544
g3
I58
sg4
g5
sg6
g5
sg7
I00
sg8
g5
sg9
S'jim.piro@enron.com'
p545
sg11
g5
sg12
g5
sg13
I3
sg14
g5
sg15
I16
sg16
g5
sg17
g5
sg18
g19
(g23
S'\x00\x00\x00\x00\x00\x00\x00\x00'
p546
tp547
Rp548
sg29
g5
sg30
I47304
sg31
I0
sg32
I1
sg33
I47304
sg34
g5
sg35
g5
sg36
g19
(g23
S'\x00\x00\x00\x00\x00\x00\x00\x00'
p549
tp550
Rp551
sg40
g5
ssS'DELAINEY DAVID W'
p552
(dp553
g3
I3093
sg4
g5
sg6
I86174
sg7
I01
sg8
g5
sg9
S'david.delainey@enron.com'
p554
sg11
I1294981
sg12
g5
sg13
I2097
sg14
g5
sg15
I3069
sg16
I1661
sg17
g5
sg18
g19
(g23
S'\xc1\t\xaf\x93\xc7\x1b\xd8?'
p555
tp556
Rp557
sg29
I3000000
sg30
I3614261
sg31
I66
sg32
I609
sg33
I1323148
sg34
I365163
sg35
I4747979
sg36
g19
(g23
S'\x1bk\x89Z\x89hW?'
p558
tp559
Rp560
sg40
I2291113
ssS'SULLIVAN-SHAKLOVITZ COLLEEN'
p561
(dp562
g3
g5
sg4
I181993
sg6
g5
sg7
I00
sg8
g5
sg9
g5
sg11
I554422
sg12
g5
sg13
g5
sg14
g5
sg15
g5
sg16
I162
sg17
g5
sg18
g19
(g23
S'\x00\x00\x00\x00\x00\x00\x00\x00'
p563
tp564
Rp565
sg29
I100000
sg30
I1362375
sg31
g5
sg32
g5
sg33
g5
sg34
I162779
sg35
I999356
sg36
g19
(g23
S'\xfc\x07T,m\x88p?'
p566
tp567
Rp568
sg40
I1362375
ssS'WROBEL BRUCE'
p569
(dp570
g3
g5
sg4
g5
sg6
g5
sg7
I00
sg8
g5
sg9
g5
sg11
g5
sg12
g5
sg13
g5
sg14
g5
sg15
g5
sg16
g5
sg17
g5
sg18
g19
(g23
S'\x00\x00\x00\x00\x00\x00\x00\x00'
p571
tp572
Rp573
sg29
g5
sg30
I139130
sg31
g5
sg32
g5
sg33
g5
sg34
g5
sg35
g5
sg36
g19
(g23
S'\x00\x00\x00\x00\x00\x00\x00\x00'
p574
tp575
Rp576
sg40
I139130
ssS'LINDHOLM TOD A'
p577
(dp578
g3
g5
sg4
I204075
sg6
I57727
sg7
I00
sg8
g5
sg9
S'tod.lindholm@enron.com'
p579
sg11
I175000
sg12
g5
sg13
g5
sg14
g5
sg15
g5
sg16
I2630
sg17
g5
sg18
g19
(g23
S'\xfe=n\xfdg&\xd0?'
p580
tp581
Rp582
sg29
I200000
sg30
I3064208
sg31
g5
sg32
g5
sg33
I514847
sg34
I236457
sg35
I875889
sg36
g19
(g23
S'\xa3\x93\\\xa92\xa6\x81?'
p583
tp584
Rp585
sg40
I2549361
ssS'MEYER JEROME J'
p586
(dp587
g3
g5
sg4
g5
sg6
I2151
sg7
I00
sg8
I-38346
sg9
g5
sg11
g5
sg12
g5
sg13
g5
sg14
g5
sg15
g5
sg16
g5
sg17
I38346
sg18
g19
(g23
S'g\xf8\xf1\xfa\xbeA\x83?'
p588
tp589
Rp590
sg29
g5
sg30
g5
sg31
g5
sg32
g5
sg33
g5
sg34
g5
sg35
I2151
sg36
g19
(g23
S'\x00\x00\x00\x00\x00\x00\x00\x00'
p591
tp592
Rp593
sg40
g5
ssS'LAY KENNETH L'
p594
(dp595
g3
I4273
sg4
I202911
sg6
I99832
sg7
I01
sg8
I-300000
sg9
S'kenneth.lay@enron.com'
p596
sg11
I3600000
sg12
g5
sg13
I2411
sg14
I81525000
sg15
I36
sg16
I10359729
sg17
g5
sg18
g19
(g23
S'\xad\r\x0c\x17\xf7\xed\xdb?'
p597
tp598
Rp599
sg29
I7000000
sg30
I49110078
sg31
I123
sg32
I16
sg33
I14761694
sg34
I1072321
sg35
I103559793
sg36
g19
(g23
S'\xd5q,\r\xf7\x16P?'
p600
tp601
Rp602
sg40
I34348384
ssS'BUTTS ROBERT H'
p603
(dp604
g3
g5
sg4
g5
sg6
I9410
sg7
I00
sg8
I-75000
sg9
S'bob.butts@enron.com'
p605
sg11
I175000
sg12
g5
sg13
g5
sg14
g5
sg15
g5
sg16
I150656
sg17
g5
sg18
g19
(g23
S'\xde\xd3\t6\x8d\x0f\xa5?'
p606
tp607
Rp608
sg29
I750000
sg30
I417619
sg31
g5
sg32
g5
sg33
I417619
sg34
I261516
sg35
I1271582
sg36
g19
(g23
S'\x00\x00\x00\x00\x00\x00\x00\x00'
p609
tp610
Rp611
sg40
g5
ssS'OLSON CINDY K'
p612
(dp613
g3
I1184
sg4
I77716
sg6
I63791
sg7
I00
sg8
g5
sg9
S'cindy.olson@enron.com'
p614
sg11
I100000
sg12
g5
sg13
I856
sg14
g5
sg15
I52
sg16
I972
sg17
g5
sg18
g19
(g23
S"\x12'\xe0\xb0\xb5\xd8\xd1?"
p615
tp616
Rp617
sg29
I750000
sg30
I2606763
sg31
I20
sg32
I15
sg33
I969729
sg34
I329078
sg35
I1321557
sg36
g19
(g23
S'\x1c\xe1\x00\xea\x90\x0bn?'
p618
tp619
Rp620
sg40
I1637034
ssS'MCDONALD REBECCA'
p621
(dp622
g3
I894
sg4
g5
sg6
g5
sg7
I00
sg8
g5
sg9
S'rebecca.mcdonald@enron.com'
p623
sg11
g5
sg12
g5
sg13
I720
sg14
g5
sg15
I13
sg16
g5
sg17
g5
sg18
g19
(g23
S'\x00\x00\x00\x00\x00\x00\x00\x00'
p624
tp625
Rp626
sg29
g5
sg30
I1691366
sg31
I54
sg32
I1
sg33
I934065
sg34
g5
sg35
g5
sg36
g19
(g23
S'\x00\x00\x00\x00\x00\x00\x00\x00'
p627
tp628
Rp629
sg40
I757301
ssS'CUMBERLAND MICHAEL S'
p630
(dp631
g3
g5
sg4
g5
sg6
I22344
sg7
I00
sg8
g5
sg9
g5
sg11
I275000
sg12
g5
sg13
g5
sg14
g5
sg15
g5
sg16
I713
sg17
g5
sg18
g19
(g23
S'D  T\x1b\x01\xb9?'
p632
tp633
Rp634
sg29
I325000
sg30
I207940
sg31
g5
sg32
g5
sg33
I207940
sg34
I184899
sg35
I807956
sg36
g19
(g23
S'\x00\x00\x00\x00\x00\x00\x00\x00'
p635
tp636
Rp637
sg40
g5
ssS'GAHN ROBERT S'
p638
(dp639
g3
g5
sg4
I73122
sg6
I50080
sg7
I00
sg8
I-1042
sg9
g5
sg11
g5
sg12
g5
sg13
g5
sg14
g5
sg15
g5
sg16
I76547
sg17
g5
sg18
g19
(g23
S'\r"?\xe0t\x05\xcc?'
p640
tp641
Rp642
sg29
I509870
sg30
I318607
sg31
g5
sg32
g5
sg33
I235370
sg34
I192008
sg35
I900585
sg36
g19
(g23
S'\xa7\x93Y\x08/\xef1?'
p643
tp644
Rp645
sg40
I83237
ssS'MCCLELLAN GEORGE'
p646
(dp647
g3
I1744
sg4
g5
sg6
I228763
sg7
I00
sg8
I-125000
sg9
S'george.mcclellan@enron.com'
p648
sg11
g5
sg12
g5
sg13
I1469
sg14
g5
sg15
I49
sg16
I51587
sg17
g5
sg18
g19
(g23
S'\x00\x00\x00\x00\x00\x00\xf0?'
p649
tp650
Rp651
sg29
I900000
sg30
I947861
sg31
I52
sg32
I0
sg33
I441096
sg34
I263413
sg35
I1318763
sg36
g19
(g23
S'\x1e\xd7D\xdd"\xa4R?'
p652
tp653
Rp654
sg40
I506765
ssS'HERMANN ROBERT J'
p655
(dp656
g3
g5
sg4
g5
sg6
I48357
sg7
I00
sg8
I-280000
sg9
S'robert.hermann@enron.com'
p657
sg11
I150000
sg12
g5
sg13
g5
sg14
g5
sg15
g5
sg16
I416441
sg17
g5
sg18
g19
(g23
S'0DGt\xa7\x0e\xcb?'
p658
tp659
Rp660
sg29
I700000
sg30
I668132
sg31
g5
sg32
g5
sg33
I480632
sg34
I262663
sg35
I1297461
sg36
g19
(g23
S'\xd8\x88wN\x9a\n<?'
p661
tp662
Rp663
sg40
I187500
ssS'SCRIMSHAW MATTHEW'
p664
(dp665
g3
g5
sg4
g5
sg6
g5
sg7
I00
sg8
g5
sg9
S'matthew.scrimshaw@enron.com'
p666
sg11
g5
sg12
g5
sg13
g5
sg14
g5
sg15
g5
sg16
g5
sg17
g5
sg18
g19
(g23
S'\x00\x00\x00\x00\x00\x00\x00\x00'
p667
tp668
Rp669
sg29
g5
sg30
I759557
sg31
g5
sg32
g5
sg33
g5
sg34
g5
sg35
g5
sg36
g19
(g23
S'\x00\x00\x00\x00\x00\x00\x00\x00'
p670
tp671
Rp672
sg40
I759557
ssS'GATHMANN WILLIAM D'
p673
(dp674
g3
g5
sg4
g5
sg6
g5
sg7
I00
sg8
g5
sg9
g5
sg11
g5
sg12
I-72419
sg13
g5
sg14
g5
sg15
g5
sg16
g5
sg17
g5
sg18
g19
(g23
S'\x00\x00\x00\x00\x00\x00\x00\x00'
p675
tp676
Rp677
sg29
g5
sg30
I1945360
sg31
g5
sg32
g5
sg33
I264013
sg34
g5
sg35
g5
sg36
g19
(g23
S'\x00\x00\x00\x00\x00\x00\x00\x00'
p678
tp679
Rp680
sg40
I1753766
ssS'HAEDICKE MARK E'
p681
(dp682
g3
I4009
sg4
I2157527
sg6
I76169
sg7
I00
sg8
I-934484
sg9
S'mark.haedicke@enron.com'
p683
sg11
I983346
sg12
I-329825
sg13
I1847
sg14
g5
sg15
I1941
sg16
I52382
sg17
g5
sg18
g19
(g23
S'\\Xi\xc58O\xd5?'
p684
tp685
Rp686
sg29
I1150000
sg30
I803094
sg31
I180
sg32
I61
sg33
I524169
sg34
I374125
sg35
I3859065
sg36
g19
(g23
S')\xd9\x92\xd2\xea\x9b>?'
p687
tp688
Rp689
sg40
I608750
ssS'BOWEN JR RAYMOND M'
p690
(dp691
g3
I1858
sg4
g5
sg6
I65907
sg7
I01
sg8
I-833
sg9
S'raymond.bowen@enron.com'
p692
sg11
I974293
sg12
g5
sg13
I1593
sg14
g5
sg15
I27
sg16
I1621
sg17
g5
sg18
g19
(g23
S'\x12\xec\xaf\xf1Ap\xd2?'
p693
tp694
Rp695
sg29
I1350000
sg30
I252055
sg31
I140
sg32
I15
sg33
I252055
sg34
I278601
sg35
I2669589
sg36
g19
(g23
S'\x00\x00\x00\x00\x00\x00\x00\x00'
p696
tp697
Rp698
sg40
g5
ssS'GILLIS JOHN'
p699
(dp700
g3
g5
sg4
g5
sg6
g5
sg7
I00
sg8
g5
sg9
g5
sg11
g5
sg12
g5
sg13
g5
sg14
g5
sg15
g5
sg16
g5
sg17
g5
sg18
g19
(g23
S'\x00\x00\x00\x00\x00\x00\x00\x00'
p701
tp702
Rp703
sg29
g5
sg30
I85641
sg31
g5
sg32
g5
sg33
I75838
sg34
g5
sg35
g5
sg36
g19
(g23
S'\x00\x00\x00\x00\x00\x00\x00\x00'
p704
tp705
Rp706
sg40
I9803
ssS'FITZGERALD JAY L'
p707
(dp708
g3
I936
sg4
g5
sg6
I23870
sg7
I00
sg8
g5
sg9
S'jay.fitzgerald@enron.com'
p709
sg11
I556416
sg12
g5
sg13
I723
sg14
g5
sg15
I16
sg16
I285414
sg17
g5
sg18
g19
(g23
S'\xec\xa7\x08kF\xb6\xba?'
p710
tp711
Rp712
sg29
I350000
sg30
I1621236
sg31
I1
sg32
I8
sg33
I956775
sg34
I199157
sg35
I1414857
sg36
g19
(g23
S'\x90\xd3{\xa3*\xc8V?'
p713
tp714
Rp715
sg40
I664461
ssS'MORAN MICHAEL P'
p716
(dp717
g3
I672
sg4
g5
sg6
g5
sg7
I00
sg8
g5
sg9
S'michael.moran@enron.com'
p718
sg11
g5
sg12
g5
sg13
I127
sg14
g5
sg15
I19
sg16
g5
sg17
g5
sg18
g19
(g23
S'\x00\x00\x00\x00\x00\x00\x00\x00'
p719
tp720
Rp721
sg29
g5
sg30
I221141
sg31
I0
sg32
I0
sg33
I161602
sg34
g5
sg35
g5
sg36
g19
(g23
S'\x00\x00\x00\x00\x00\x00\x00\x00'
p722
tp723
Rp724
sg40
I59539
ssS'REDMOND BRIAN L'
p725
(dp726
g3
I1671
sg4
g5
sg6
I14689
sg7
I00
sg8
g5
sg9
S'brian.redmond@enron.com'
p727
sg11
g5
sg12
g5
sg13
I1063
sg14
g5
sg15
I221
sg16
g5
sg17
g5
sg18
g19
(g23
S'\x86\xed\xech\x1ap\xb0?'
p728
tp729
Rp730
sg29
g5
sg30
I7890324
sg31
I204
sg32
I49
sg33
I381285
sg34
I96840
sg35
I111529
sg36
g19
(g23
S'M\xfdj\x813\x84\xc9?'
p731
tp732
Rp733
sg40
I7509039
ssS'BAZELIDES PHILIP J'
p734
(dp735
g3
g5
sg4
I684694
sg6
g5
sg7
I00
sg8
g5
sg9
g5
sg11
I93750
sg12
g5
sg13
g5
sg14
g5
sg15
g5
sg16
I874
sg17
g5
sg18
g19
(g23
S'\x00\x00\x00\x00\x00\x00\x00\x00'
p736
tp737
Rp738
sg29
g5
sg30
I1599641
sg31
g5
sg32
g5
sg33
g5
sg34
I80818
sg35
I860136
sg36
g19
(g23
S'1\x13\x83j\xe3\x8dv?'
p739
tp740
Rp741
sg40
I1599641
ssS'BELDEN TIMOTHY N'
p742
(dp743
g3
I7991
sg4
I2144013
sg6
I17355
sg7
I01
sg8
I-2334434
sg9
S'tim.belden@enron.com'
p744
sg11
g5
sg12
g5
sg13
I5521
sg14
g5
sg15
I484
sg16
I210698
sg17
g5
sg18
g19
(g23
S'\x90\x13\xa8\xca\xdbk\xb3?'
p745
tp746
Rp747
sg29
I5249999
sg30
I1110705
sg31
I228
sg32
I108
sg33
I157569
sg34
I213999
sg35
I5501630
sg36
g19
(g23
S'\x94\xdaB\x9b\xf3\xce@?'
p748
tp749
Rp750
sg40
I953136
ssS'DURAN WILLIAM D'
p751
(dp752
g3
I904
sg4
g5
sg6
I25785
sg7
I00
sg8
g5
sg9
S'w.duran@enron.com'
p753
sg11
I1105218
sg12
g5
sg13
I599
sg14
g5
sg15
I12
sg16
I1568
sg17
g5
sg18
g19
(g23
S'nHDR\xe2\xda\xbc?'
p754
tp755
Rp756
sg29
I750000
sg30
I1640910
sg31
I106
sg32
I3
sg33
I189041
sg34
I210692
sg35
I2093263
sg36
g19
(g23
S'05n@\xb8\xd2`?'
p757
tp758
Rp759
sg40
I1451869
ssS'THORN TERENCE H'
p760
(dp761
g3
I266
sg4
I16586
sg6
I46145
sg7
I00
sg8
g5
sg9
S'terence.thorn@enron.com'
p762
sg11
I200000
sg12
g5
sg13
I73
sg14
g5
sg15
I41
sg16
I426629
sg17
g5
sg18
g19
(g23
S'\xfc\xc0\xd4\xae\xce\xd1\xc9?'
p763
tp764
Rp765
sg29
g5
sg30
I4817796
sg31
I0
sg32
I0
sg33
I365320
sg34
I222093
sg35
I911453
sg36
g19
(g23
S'\x1b\x9c\xd5H)\x9f\x8d?'
p766
tp767
Rp768
sg40
I4452476
ssS'FASTOW ANDREW S'
p769
(dp770
g3
g5
sg4
g5
sg6
I55921
sg7
I01
sg8
I-1386055
sg9
S'andrew.fastow@enron.com'
p771
sg11
I1736055
sg12
g5
sg13
g5
sg14
g5
sg15
g5
sg16
I277464
sg17
g5
sg18
g19
(g23
S'\x02\x8c\xeb\xfe\x1eJ\xcf?'
p772
tp773
Rp774
sg29
I1300000
sg30
I1794412
sg31
g5
sg32
g5
sg33
I1794412
sg34
I440698
sg35
I2424083
sg36
g19
(g23
S'\x00\x00\x00\x00\x00\x00\x00\x00'
p775
tp776
Rp777
sg40
g5
ssS'FOY JOE'
p778
(dp779
g3
I57
sg4
I181755
sg6
g5
sg7
I00
sg8
g5
sg9
S'tracy.foy@enron.com'
p780
sg11
g5
sg12
g5
sg13
I2
sg14
g5
sg15
I13
sg16
g5
sg17
g5
sg18
g19
(g23
S'\x00\x00\x00\x00\x00\x00\x00\x00'
p781
tp782
Rp783
sg29
g5
sg30
I343434
sg31
I0
sg32
I0
sg33
g5
sg34
g5
sg35
I181755
sg36
g19
(g23
S'\xb9\x07$F`\xeav?'
p784
tp785
Rp786
sg40
I343434
ssS'CALGER CHRISTOPHER F'
p787
(dp788
g3
I2598
sg4
g5
sg6
I35818
sg7
I01
sg8
I-262500
sg9
S'christopher.calger@enron.com'
p789
sg11
I375304
sg12
g5
sg13
I2188
sg14
g5
sg15
I144
sg16
I486
sg17
g5
sg18
g19
(g23
S'\x05e \x84\x91\n\xc4?'
p790
tp791
Rp792
sg29
I1250000
sg30
I126027
sg31
I199
sg32
I25
sg33
I126027
sg34
I240189
sg35
I1639297
sg36
g19
(g23
S'\x00\x00\x00\x00\x00\x00\x00\x00'
p793
tp794
Rp795
sg40
g5
ssS'RICE KENNETH D'
p796
(dp797
g3
I905
sg4
g5
sg6
I46950
sg7
I01
sg8
I-3504386
sg9
S'ken.rice@enron.com'
p798
sg11
I1617011
sg12
g5
sg13
I864
sg14
g5
sg15
I18
sg16
I174839
sg17
g5
sg18
g19
(g23
S'\xec/;\x92\x1dE\xca?'
p799
tp800
Rp801
sg29
I1750000
sg30
I22542539
sg31
I42
sg32
I4
sg33
I2748364
sg34
I420636
sg35
I505050
sg36
g19
(g23
S'}q+\xb1\xf1\xb4\xbd?'
p802
tp803
Rp804
sg40
I19794175
ssS'KAMINSKI WINCENTY J'
p805
(dp806
g3
I4607
sg4
g5
sg6
I83585
sg7
I00
sg8
g5
sg9
S'vince.kaminski@enron.com'
p807
sg11
I323466
sg12
g5
sg13
I583
sg14
g5
sg15
I14368
sg16
I4669
sg17
g5
sg18
g19
(g23
S'\x841\x1e\x01[b\xd7?'
p808
tp809
Rp810
sg29
I400000
sg30
I976037
sg31
I41
sg32
I171
sg33
I126027
sg34
I275101
sg35
I1086821
sg36
g19
(g23
S'q8\xaf\xc3V\xf8b?'
p811
tp812
Rp813
sg40
I850010
ssS'LOCKHART EUGENE E'
p814
(dp815
g3
g5
sg4
g5
sg6
g5
sg7
I00
sg8
g5
sg9
g5
sg11
g5
sg12
g5
sg13
g5
sg14
g5
sg15
g5
sg16
g5
sg17
g5
sg18
g19
(g23
S'\x00\x00\x00\x00\x00\x00\x00\x00'
p816
tp817
Rp818
sg29
g5
sg30
g5
sg31
g5
sg32
g5
sg33
g5
sg34
g5
sg35
g5
sg36
g19
(g23
S'\x00\x00\x00\x00\x00\x00\x00\x00'
p819
tp820
Rp821
sg40
g5
ssS'COX DAVID'
p822
(dp823
g3
I102
sg4
g5
sg6
I27861
sg7
I00
sg8
I-41250
sg9
S'chip.cox@enron.com'
p824
sg11
g5
sg12
g5
sg13
I71
sg14
g5
sg15
I33
sg16
I494
sg17
g5
sg18
g19
(g23
S'\x1d\xe2\xa8\xc7\x9d-\xbf?'
p825
tp826
Rp827
sg29
I800000
sg30
I495633
sg31
I0
sg32
I4
sg33
I378082
sg34
I314288
sg35
I1101393
sg36
g19
(g23
S'\xff\x055\xea\xb8\xb54?'
p828
tp829
Rp830
sg40
I117551
ssS'OVERDYKE JR JERE C'
p831
(dp832
g3
g5
sg4
g5
sg6
I18834
sg7
I00
sg8
g5
sg9
S'jere.overdyke@enron.com'
p833
sg11
I135836
sg12
g5
sg13
g5
sg14
g5
sg15
g5
sg16
I176
sg17
g5
sg18
g19
(g23
S'\xe2\xb1|\xf4\x8f\x13\xb5?'
p834
tp835
Rp836
sg29
g5
sg30
I7307594
sg31
g5
sg32
g5
sg33
I2041016
sg34
I94941
sg35
I249787
sg36
g19
(g23
S'\x07\x14\xa2\x19k\xf6\xaf?'
p837
tp838
Rp839
sg40
I5266578
ssS'PEREIRA PAULO V. FERRAZ'
p840
(dp841
g3
g5
sg4
g5
sg6
I27942
sg7
I00
sg8
I-101250
sg9
g5
sg11
g5
sg12
g5
sg13
g5
sg14
g5
sg15
g5
sg16
g5
sg17
I101250
sg18
g19
(g23
S'\xa1\xe6\x1c:\xd2D\xbf?'
p842
tp843
Rp844
sg29
g5
sg30
g5
sg31
g5
sg32
g5
sg33
g5
sg34
g5
sg35
I27942
sg36
g19
(g23
S'\x00\x00\x00\x00\x00\x00\x00\x00'
p845
tp846
Rp847
sg40
g5
ssS'STABLER FRANK'
p848
(dp849
g3
g5
sg4
g5
sg6
I16514
sg7
I00
sg8
g5
sg9
S'frank.stabler@enron.com'
p850
sg11
g5
sg12
g5
sg13
g5
sg14
g5
sg15
g5
sg16
I356071
sg17
g5
sg18
g19
(g23
S'\xca\xfa\xfc\xd0\xedz\xb2?'
p851
tp852
Rp853
sg29
I500000
sg30
I511734
sg31
g5
sg32
g5
sg33
I511734
sg34
I239502
sg35
I1112087
sg36
g19
(g23
S'\x00\x00\x00\x00\x00\x00\x00\x00'
p854
tp855
Rp856
sg40
g5
ssS'SKILLING JEFFREY K'
p857
(dp858
g3
I3627
sg4
g5
sg6
I29336
sg7
I01
sg8
g5
sg9
S'jeff.skilling@enron.com'
p859
sg11
I1920000
sg12
g5
sg13
I2042
sg14
g5
sg15
I108
sg16
I22122
sg17
g5
sg18
g19
(g23
S'\x80\xa0@K\x16j\xc0?'
p860
tp861
Rp862
sg29
I5600000
sg30
I26093672
sg31
I88
sg32
I30
sg33
I6843672
sg34
I1111258
sg35
I8682716
sg36
g19
(g23
S'\xf1\xaa\xa0\xfb)\xe3z?'
p863
tp864
Rp865
sg40
I19250000
ssS'BLAKE JR. NORMAN P'
p866
(dp867
g3
g5
sg4
g5
sg6
I1279
sg7
I00
sg8
I-113784
sg9
g5
sg11
g5
sg12
g5
sg13
g5
sg14
g5
sg15
g5
sg16
g5
sg17
I113784
sg18
g19
(g23
S'\xcb\xaa\x03I\x86\xe6v?'
p868
tp869
Rp870
sg29
g5
sg30
g5
sg31
g5
sg32
g5
sg33
g5
sg34
g5
sg35
I1279
sg36
g19
(g23
S'\x00\x00\x00\x00\x00\x00\x00\x00'
p871
tp872
Rp873
sg40
g5
ssS'SHERRICK JEFFREY B'
p874
(dp875
g3
I613
sg4
g5
sg6
g5
sg7
I00
sg8
g5
sg9
S'jeffrey.sherrick@enron.com'
p876
sg11
g5
sg12
g5
sg13
I583
sg14
g5
sg15
I25
sg16
g5
sg17
g5
sg18
g19
(g23
S'\x00\x00\x00\x00\x00\x00\x00\x00'
p877
tp878
Rp879
sg29
g5
sg30
I1832468
sg31
I39
sg32
I18
sg33
I405999
sg34
g5
sg35
g5
sg36
g19
(g23
S'\x00\x00\x00\x00\x00\x00\x00\x00'
p880
tp881
Rp882
sg40
I1426469
ssS'PRENTICE JAMES'
p883
(dp884
g3
g5
sg4
I564348
sg6
g5
sg7
I00
sg8
g5
sg9
S'james.prentice@enron.com'
p885
sg11
g5
sg12
g5
sg13
g5
sg14
g5
sg15
g5
sg16
g5
sg17
g5
sg18
g19
(g23
S'\x00\x00\x00\x00\x00\x00\x00\x00'
p886
tp887
Rp888
sg29
g5
sg30
I1095040
sg31
g5
sg32
g5
sg33
I208809
sg34
g5
sg35
I564348
sg36
g19
(g23
S'\xea\xd4:\x15n\x0bs?'
p889
tp890
Rp891
sg40
I886231
ssS'GRAY RODNEY'
p892
(dp893
g3
g5
sg4
I93585
sg6
g5
sg7
I00
sg8
g5
sg9
g5
sg11
I365625
sg12
g5
sg13
g5
sg14
g5
sg15
g5
sg16
I680833
sg17
g5
sg18
g19
(g23
S'\x00\x00\x00\x00\x00\x00\x00\x00'
p894
tp895
Rp896
sg29
g5
sg30
g5
sg31
g5
sg32
g5
sg33
g5
sg34
I6615
sg35
I1146658
sg36
g19
(g23
S'\x00\x00\x00\x00\x00\x00\x00\x00'
p897
tp898
Rp899
sg40
g5
ssS'PICKERING MARK R'
p900
(dp901
g3
I898
sg4
g5
sg6
I31653
sg7
I00
sg8
g5
sg9
S'mark.pickering@enron.com'
p902
sg11
g5
sg12
g5
sg13
I728
sg14
I400000
sg15
I67
sg16
g5
sg17
g5
sg18
g19
(g23
S'B\xe4\xe1Z\xf9\xb5\xc1?'
p903
tp904
Rp905
sg29
I300000
sg30
I28798
sg31
I7
sg32
I0
sg33
g5
sg34
I655037
sg35
I1386690
sg36
g19
(g23
S'B\x1de\x85q\x1e\x10?'
p906
tp907
Rp908
sg40
I28798
ssS'THE TRAVEL AGENCY IN THE PARK'
p909
(dp910
g3
g5
sg4
g5
sg6
g5
sg7
I00
sg8
g5
sg9
g5
sg11
g5
sg12
g5
sg13
g5
sg14
g5
sg15
g5
sg16
I362096
sg17
g5
sg18
g19
(g23
S'\x00\x00\x00\x00\x00\x00\x00\x00'
p911
tp912
Rp913
sg29
g5
sg30
g5
sg31
g5
sg32
g5
sg33
g5
sg34
g5
sg35
I362096
sg36
g19
(g23
S'\x00\x00\x00\x00\x00\x00\x00\x00'
p914
tp915
Rp916
sg40
g5
ssS'NOLES JAMES L'
p917
(dp918
g3
g5
sg4
I774401
sg6
g5
sg7
I00
sg8
g5
sg9
g5
sg11
g5
sg12
I-94556
sg13
g5
sg14
g5
sg15
g5
sg16
g5
sg17
g5
sg18
g19
(g23
S'\x00\x00\x00\x00\x00\x00\x00\x00'
p919
tp920
Rp921
sg29
g5
sg30
I368705
sg31
g5
sg32
g5
sg33
I463261
sg34
g5
sg35
I774401
sg36
g19
(g23
S'\x00\x00\x00\x00\x00\x00\x00\x00'
p922
tp923
Rp924
sg40
g5
ssS'KEAN STEVEN J'
p925
(dp926
g3
I12754
sg4
g5
sg6
I41953
sg7
I00
sg8
g5
sg9
S'steven.kean@enron.com'
p927
sg11
I300000
sg12
g5
sg13
I3639
sg14
g5
sg15
I6759
sg16
I1231
sg17
g5
sg18
g19
(g23
S'#\xea\x82rXy\xc7?'
p928
tp929
Rp930
sg29
I1000000
sg30
I6153642
sg31
I140
sg32
I387
sg33
I4131594
sg34
I404338
sg35
I1747522
sg36
g19
(g23
S'c\xbd\x14\x85\xc0\x10l?'
p931
tp932
Rp933
sg40
I2022048
ssS'FOWLER PEGGY'
p934
(dp935
g3
I517
sg4
g5
sg6
g5
sg7
I00
sg8
g5
sg9
S'kulvinder.fowler@enron.com'
p936
sg11
g5
sg12
g5
sg13
I10
sg14
g5
sg15
I36
sg16
g5
sg17
g5
sg18
g19
(g23
S'\x00\x00\x00\x00\x00\x00\x00\x00'
p937
tp938
Rp939
sg29
g5
sg30
I1884748
sg31
I0
sg32
I0
sg33
I560170
sg34
g5
sg35
g5
sg36
g19
(g23
S'\x00\x00\x00\x00\x00\x00\x00\x00'
p940
tp941
Rp942
sg40
I1324578
ssS'WASAFF GEORGE'
p943
(dp944
g3
I400
sg4
I831299
sg6
g5
sg7
I00
sg8
I-583325
sg9
S'george.wasaff@enron.com'
p945
sg11
I200000
sg12
g5
sg13
I337
sg14
g5
sg15
I30
sg16
I1425
sg17
g5
sg18
g19
(g23
S'\x00\x00\x00\x00\x00\x00\x00\x00'
p946
tp947
Rp948
sg29
I325000
sg30
I2056427
sg31
I22
sg32
I7
sg33
I388167
sg34
I259996
sg35
I1034395
sg36
g19
(g23
S'C\xd3\xf1\x84%\x8fs?'
p949
tp950
Rp951
sg40
I1668260
ssS'WHITE JR THOMAS E'
p952
(dp953
g3
g5
sg4
g5
sg6
I81353
sg7
I00
sg8
g5
sg9
S'thomas.white@enron.com'
p954
sg11
g5
sg12
g5
sg13
g5
sg14
g5
sg15
g5
sg16
I1085463
sg17
g5
sg18
g19
(g23
S'\x9f\xa0\xa9\xec\x7f\xc2\xd6?'
p955
tp956
Rp957
sg29
I450000
sg30
I15144123
sg31
g5
sg32
g5
sg33
I13847074
sg34
I317543
sg35
I1934359
sg36
g19
(g23
S'\x19\x8fW\x1b\x89C`?'
p958
tp959
Rp960
sg40
I1297049
ssS'CHRISTODOULOU DIOMEDES'
p961
(dp962
g3
g5
sg4
g5
sg6
g5
sg7
I00
sg8
g5
sg9
S'diomedes.christodoulou@enron.com'
p963
sg11
g5
sg12
g5
sg13
g5
sg14
g5
sg15
g5
sg16
g5
sg17
g5
sg18
g19
(g23
S'\x00\x00\x00\x00\x00\x00\x00\x00'
p964
tp965
Rp966
sg29
g5
sg30
I6077885
sg31
g5
sg32
g5
sg33
I950730
sg34
g5
sg35
g5
sg36
g19
(g23
S'\x00\x00\x00\x00\x00\x00\x00\x00'
p967
tp968
Rp969
sg40
I5127155
ssS'ALLEN PHILLIP K'
p970
(dp971
g3
I2902
sg4
I2869717
sg6
I13868
sg7
I00
sg8
I-3081055
sg9
S'phillip.allen@enron.com'
p972
sg11
I304805
sg12
I-126027
sg13
I1407
sg14
g5
sg15
I2195
sg16
I152
sg17
g5
sg18
g19
(g23
S'\xd6#^l\xce\t\xaf?'
p973
tp974
Rp975
sg29
I4175000
sg30
I1729541
sg31
I47
sg32
I65
sg33
I126027
sg34
I201955
sg35
I4484442
sg36
g19
(g23
S'\t8\x9b\xcd\x8e\xb5R?'
p976
tp977
Rp978
sg40
I1729541
ssS'SHARP VICTORIA T'
p979
(dp980
g3
I3136
sg4
I187469
sg6
I116337
sg7
I00
sg8
g5
sg9
S'vicki.sharp@enron.com'
p981
sg11
I422158
sg12
g5
sg13
I2477
sg14
g5
sg15
I136
sg16
I2401
sg17
g5
sg18
g19
(g23
S'Y\xb4\x0e\xc4\x06F\xe0?'
p982
tp983
Rp984
sg29
I600000
sg30
I494136
sg31
I24
sg32
I6
sg33
I213063
sg34
I248146
sg35
I1576511
sg36
g19
(g23
S'%\xf8\xc8\x9e-LA?'
p985
tp986
Rp987
sg40
I281073
ssS'JAEDICKE ROBERT'
p988
(dp989
g3
g5
sg4
g5
sg6
g5
sg7
I00
sg8
I-25000
sg9
g5
sg11
g5
sg12
I-44093
sg13
g5
sg14
g5
sg15
g5
sg16
g5
sg17
I108750
sg18
g19
(g23
S'\x00\x00\x00\x00\x00\x00\x00\x00'
p990
tp991
Rp992
sg29
g5
sg30
I431750
sg31
g5
sg32
g5
sg33
I44093
sg34
g5
sg35
I83750
sg36
g19
(g23
S'\xac\x91F\xca\x96B\x8f?'
p993
tp994
Rp995
sg40
I431750
ssS'WINOKUR JR. HERBERT S'
p996
(dp997
g3
g5
sg4
g5
sg6
I1413
sg7
I00
sg8
I-25000
sg9
g5
sg11
g5
sg12
g5
sg13
g5
sg14
g5
sg15
g5
sg16
g5
sg17
I108579
sg18
g19
(g23
S'\xd6z(\xc9\xbcLy?'
p998
tp999
Rp1000
sg29
g5
sg30
g5
sg31
g5
sg32
g5
sg33
g5
sg34
g5
sg35
I84992
sg36
g19
(g23
S'\x00\x00\x00\x00\x00\x00\x00\x00'
p1001
tp1002
Rp1003
sg40
g5
ssS'BROWN MICHAEL'
p1004
(dp1005
g3
I1486
sg4
g5
sg6
I49288
sg7
I00
sg8
g5
sg9
S'michael.brown@enron.com'
p1006
sg11
g5
sg12
g5
sg13
I761
sg14
g5
sg15
I41
sg16
g5
sg17
g5
sg18
g19
(g23
S'1\x9a\xb2\xb0\x02\x94\xcb?'
p1007
tp1008
Rp1009
sg29
g5
sg30
g5
sg31
I13
sg32
I1
sg33
g5
sg34
g5
sg35
I49288
sg36
g19
(g23
S'\x00\x00\x00\x00\x00\x00\x00\x00'
p1010
tp1011
Rp1012
sg40
g5
ssS'BADUM JAMES P'
p1013
(dp1014
g3
g5
sg4
I178980
sg6
I3486
sg7
I00
sg8
g5
sg9
g5
sg11
g5
sg12
g5
sg13
g5
sg14
g5
sg15
g5
sg16
g5
sg17
g5
sg18
g19
(g23
S'I\x8e\xcf\xedY5\x8f?'
p1015
tp1016
Rp1017
sg29
g5
sg30
I257817
sg31
g5
sg32
g5
sg33
g5
sg34
g5
sg35
I182466
sg36
g19
(g23
S'\xb1/\x155\xbf"q?'
p1018
tp1019
Rp1020
sg40
I257817
ssS'HUGHES JAMES A'
p1021
(dp1022
g3
I719
sg4
g5
sg6
g5
sg7
I00
sg8
g5
sg9
S'james.hughes@enron.com'
p1023
sg11
g5
sg12
g5
sg13
I589
sg14
g5
sg15
I34
sg16
g5
sg17
g5
sg18
g19
(g23
S'\x00\x00\x00\x00\x00\x00\x00\x00'
p1024
tp1025
Rp1026
sg29
g5
sg30
I1118394
sg31
I35
sg32
I5
sg33
I363428
sg34
g5
sg35
g5
sg36
g19
(g23
S'\x00\x00\x00\x00\x00\x00\x00\x00'
p1027
tp1028
Rp1029
sg40
I754966
ssS'REYNOLDS LAWRENCE'
p1030
(dp1031
g3
g5
sg4
I51365
sg6
I8409
sg7
I00
sg8
I-200000
sg9
g5
sg11
I156250
sg12
I-140264
sg13
g5
sg14
g5
sg15
g5
sg16
I202052
sg17
g5
sg18
g19
(g23
S'\xb1\xcf\xdf\xd3\x04\xd2\xa2?'
p1032
tp1033
Rp1034
sg29
I100000
sg30
I4221891
sg31
g5
sg32
g5
sg33
I201483
sg34
I76399
sg35
I394475
sg36
g19
(g23
S'%\x143\xcfy\xfa\x9f?'
p1035
tp1036
Rp1037
sg40
I4160672
ssS'DIMICHELE RICHARD G'
p1038
(dp1039
g3
g5
sg4
g5
sg6
I35812
sg7
I00
sg8
g5
sg9
S'richard.dimichele@enron.com'
p1040
sg11
I694862
sg12
g5
sg13
g5
sg14
g5
sg15
g5
sg16
I374689
sg17
g5
sg18
g19
(g23
S'r5\xe3\x7f\xb5\t\xc4?'
p1041
tp1042
Rp1043
sg29
I1000000
sg30
I8317782
sg31
g5
sg32
g5
sg33
I126027
sg34
I262788
sg35
I2368151
sg36
g19
(g23
S'j\xbc\x8d\xdc\xb4\xf9\x84?'
p1044
tp1045
Rp1046
sg40
I8191755
ssS'CARTER REBECCA C'
p1047
(dp1048
g3
I312
sg4
g5
sg6
g5
sg7
I00
sg8
I-159792
sg9
S'rebecca.carter@enron.com'
p1049
sg11
I75000
sg12
I-307301
sg13
I196
sg14
g5
sg15
I15
sg16
I540
sg17
g5
sg18
g19
(g23
S'\x00\x00\x00\x00\x00\x00\x00\x00'
p1050
tp1051
Rp1052
sg29
I300000
sg30
g5
sg31
I29
sg32
I7
sg33
I307301
sg34
I261809
sg35
I477557
sg36
g19
(g23
S'\x00\x00\x00\x00\x00\x00\x00\x00'
p1053
tp1054
Rp1055
sg40
g5
ssS'BUCHANAN HAROLD G'
p1056
(dp1057
g3
I1088
sg4
g5
sg6
I600
sg7
I00
sg8
g5
sg9
S'john.buchanan@enron.com'
p1058
sg11
I304805
sg12
g5
sg13
I23
sg14
g5
sg15
I125
sg16
I1215
sg17
g5
sg18
g19
(g23
S'\xfe]\xa5\xf9i|e?'
p1059
tp1060
Rp1061
sg29
I500000
sg30
I1014505
sg31
I0
sg32
I0
sg33
I189041
sg34
I248017
sg35
I1054637
sg36
g19
(g23
S'\xab\x1b!E\x05\xfcb?'
p1062
tp1063
Rp1064
sg40
I825464
ssS'YEAP SOON'
p1065
(dp1066
g3
g5
sg4
g5
sg6
I55097
sg7
I00
sg8
g5
sg9
g5
sg11
g5
sg12
g5
sg13
g5
sg14
g5
sg15
g5
sg16
g5
sg17
g5
sg18
g19
(g23
S'k\x06nc\x17\xd4\xce?'
p1067
tp1068
Rp1069
sg29
g5
sg30
I192758
sg31
g5
sg32
g5
sg33
g5
sg34
g5
sg35
I55097
sg36
g19
(g23
S'U\xfbon\xd86\x85?'
p1070
tp1071
Rp1072
sg40
I192758
ssS'MURRAY JULIA H'
p1073
(dp1074
g3
I2192
sg4
g5
sg6
I57580
sg7
I00
sg8
g5
sg9
S'julia.murray@enron.com'
p1075
sg11
I125000
sg12
g5
sg13
I395
sg14
g5
sg15
I45
sg16
I330
sg17
g5
sg18
g19
(g23
S'4\xb7\x80\xc9\xe0\x1b\xd0?'
p1076
tp1077
Rp1078
sg29
I400000
sg30
I597461
sg31
I11
sg32
I2
sg33
I196983
sg34
I229284
sg35
I812194
sg36
g19
(g23
S'\x8b\x0fW\x9cc\xebW?'
p1079
tp1080
Rp1081
sg40
I400478
ssS'GARLAND C KEVIN'
p1082
(dp1083
g3
I209
sg4
g5
sg6
I48405
sg7
I00
sg8
g5
sg9
S'kevin.garland@enron.com'
p1084
sg11
I375304
sg12
g5
sg13
I178
sg14
g5
sg15
I44
sg16
I60814
sg17
g5
sg18
g19
(g23
S'\xc8\xc00\x96\x87\x15\xcb?'
p1085
tp1086
Rp1087
sg29
I850000
sg30
I896153
sg31
I10
sg32
I27
sg33
I259907
sg34
I231946
sg35
I1566469
sg36
g19
(g23
S'\x06\xb7\x8em\x03\xb4S?'
p1088
tp1089
Rp1090
sg40
I636246
ssS'DODSON KEITH'
p1091
(dp1092
g3
I176
sg4
g5
sg6
I28164
sg7
I00
sg8
g5
sg9
S'keith.dodson@enron.com'
p1093
sg11
g5
sg12
g5
sg13
I114
sg14
g5
sg15
I14
sg16
I774
sg17
g5
sg18
g19
(g23
S'(\xa7\xccsk\x84\xbf?'
p1094
tp1095
Rp1096
sg29
I70000
sg30
g5
sg31
I10
sg32
I3
sg33
g5
sg34
I221003
sg35
I319941
sg36
g19
(g23
S'\x00\x00\x00\x00\x00\x00\x00\x00'
p1097
tp1098
Rp1099
sg40
g5
ssS'YEAGER F SCOTT'
p1100
(dp1101
g3
g5
sg4
g5
sg6
I53947
sg7
I01
sg8
g5
sg9
S'scott.yeager@enron.com'
p1102
sg11
g5
sg12
g5
sg13
g5
sg14
g5
sg15
g5
sg16
I147950
sg17
g5
sg18
g19
(g23
S'\xefgI\x8c]/\xce?'
p1103
tp1104
Rp1105
sg29
g5
sg30
I11884758
sg31
g5
sg32
g5
sg33
I3576206
sg34
I158403
sg35
I360300
sg36
g19
(g23
S'tv\x06:\x99z\xb1?'
p1106
tp1107
Rp1108
sg40
I8308552
ssS'HIRKO JOSEPH'
p1109
(dp1110
g3
g5
sg4
I10259
sg6
I77978
sg7
I01
sg8
g5
sg9
S'joe.hirko@enron.com'
p1111
sg11
g5
sg12
g5
sg13
g5
sg14
g5
sg15
g5
sg16
I2856
sg17
g5
sg18
g19
(g23
S'>\x1cqD\xc8\xd0\xd5?'
p1112
tp1113
Rp1114
sg29
g5
sg30
I30766064
sg31
g5
sg32
g5
sg33
g5
sg34
g5
sg35
I91093
sg36
g19
(g23
S'\x00\x00\x00\x00\x00\x00\xf0?'
p1115
tp1116
Rp1117
sg40
I30766064
ssS'DIETRICH JANET R'
p1118
(dp1119
g3
I2572
sg4
g5
sg6
I3475
sg7
I00
sg8
g5
sg9
S'janet.dietrich@enron.com'
p1120
sg11
I556416
sg12
g5
sg13
I1902
sg14
g5
sg15
I63
sg16
I473
sg17
g5
sg18
g19
(g23
S'\xc3\x1a"\x1c$\x1c\x8f?'
p1121
tp1122
Rp1123
sg29
I600000
sg30
I1865087
sg31
I305
sg32
I14
sg33
I315068
sg34
I250100
sg35
I1410464
sg36
g19
(g23
S'\xda(fk\xab\xa7j?'
p1124
tp1125
Rp1126
sg40
I1550019
ssS'DERRICK JR. JAMES V'
p1127
(dp1128
g3
I2181
sg4
g5
sg6
I51124
sg7
I00
sg8
I-1284000
sg9
S'james.derrick@enron.com'
p1129
sg11
I484000
sg12
I-1787380
sg13
I1401
sg14
g5
sg15
I909
sg16
I7482
sg17
g5
sg18
g19
(g23
S'\x0cx\xd5\xc1\xff\x9a\xcc?'
p1130
tp1131
Rp1132
sg29
I800000
sg30
I8831913
sg31
I64
sg32
I20
sg33
I1787380
sg34
I492375
sg35
I550981
sg36
g19
(g23
S'\x99vA%\xbaL\xa8?'
p1133
tp1134
Rp1135
sg40
I8831913
ssS'FREVERT MARK A'
p1136
(dp1137
g3
I3275
sg4
I6426990
sg6
I86987
sg7
I00
sg8
I-3367011
sg9
S'mark.frevert@enron.com'
p1138
sg11
I1617011
sg12
g5
sg13
I2979
sg14
I2000000
sg15
I21
sg16
I7427621
sg17
g5
sg18
g19
(g23
S'\xf0`\xe0\xb2\x01V\xd8?'
p1139
tp1140
Rp1141
sg29
I2000000
sg30
I14622185
sg31
I242
sg32
I6
sg33
I4188667
sg34
I1060932
sg35
I17252530
sg36
g19
(g23
S'\x17\x18\xb7\xbf0V]?'
p1142
tp1143
Rp1144
sg40
I10433518
ssS'PAI LOU L'
p1145
(dp1146
g3
g5
sg4
g5
sg6
I32047
sg7
I00
sg8
g5
sg9
S'lou.pai@enron.com'
p1147
sg11
g5
sg12
g5
sg13
g5
sg14
g5
sg15
g5
sg16
I1829457
sg17
g5
sg18
g19
(g23
S'T\x18\xe9\x1bi\xee\xc1?'
p1148
tp1149
Rp1150
sg29
I1000000
sg30
I23817930
sg31
g5
sg32
g5
sg33
I8453763
sg34
I261879
sg35
I3123383
sg36
g19
(g23
S'*T\xc4\xc8\x03\xd4\x8d?'
p1151
tp1152
Rp1153
sg40
I15364167
ssS'BAY FRANKLIN R'
p1154
(dp1155
g3
g5
sg4
I260455
sg6
I129142
sg7
I00
sg8
I-201641
sg9
S'frank.bay@enron.com'
p1156
sg11
g5
sg12
I-82782
sg13
g5
sg14
g5
sg15
g5
sg16
I69
sg17
g5
sg18
g19
(g23
S'l;i\xc4\x92\x10\xe2?'
p1157
tp1158
Rp1159
sg29
I400000
sg30
I63014
sg31
g5
sg32
g5
sg33
I145796
sg34
I239671
sg35
I827696
sg36
g19
(g23
S'\x00\x00\x00\x00\x00\x00\x00\x00'
p1160
tp1161
Rp1162
sg40
g5
ssS'HAYSLETT RODERICK J'
p1163
(dp1164
g3
I2649
sg4
g5
sg6
g5
sg7
I00
sg8
g5
sg9
S'rod.hayslett@enron.com'
p1165
sg11
g5
sg12
g5
sg13
I571
sg14
g5
sg15
I1061
sg16
g5
sg17
g5
sg18
g19
(g23
S'\x00\x00\x00\x00\x00\x00\x00\x00'
p1166
tp1167
Rp1168
sg29
g5
sg30
I346663
sg31
I35
sg32
I38
sg33
I346663
sg34
g5
sg35
g5
sg36
g19
(g23
S'\x00\x00\x00\x00\x00\x00\x00\x00'
p1169
tp1170
Rp1171
sg40
g5
ssS'FUGH JOHN L'
p1172
(dp1173
g3
g5
sg4
I50591
sg6
g5
sg7
I00
sg8
g5
sg9
g5
sg11
g5
sg12
g5
sg13
g5
sg14
g5
sg15
g5
sg16
g5
sg17
g5
sg18
g19
(g23
S'\x00\x00\x00\x00\x00\x00\x00\x00'
p1174
tp1175
Rp1176
sg29
g5
sg30
I176378
sg31
g5
sg32
g5
sg33
g5
sg34
g5
sg35
I50591
sg36
g19
(g23
S'm\x1dfW\xf4#\x85?'
p1177
tp1178
Rp1179
sg40
I176378
ssS'FALLON JAMES B'
p1180
(dp1181
g3
I1755
sg4
g5
sg6
I95924
sg7
I00
sg8
g5
sg9
S'jim.fallon@enron.com'
p1182
sg11
I374347
sg12
g5
sg13
I1604
sg14
g5
sg15
I75
sg16
I401481
sg17
g5
sg18
g19
(g23
S'/\x88\xe0\x07\x13\xd6\xda?'
p1183
tp1184
Rp1185
sg29
I2500000
sg30
I2332399
sg31
I42
sg32
I37
sg33
I1392142
sg34
I304588
sg35
I3676340
sg36
g19
(g23
S'\x8fF\x8a\x8dW\xd0H?'
p1186
tp1187
Rp1188
sg40
I940257
ssS'KOENIG MARK E'
p1189
(dp1190
g3
I2374
sg4
g5
sg6
I127017
sg7
I01
sg8
g5
sg9
S'mark.koenig@enron.com'
p1191
sg11
I300000
sg12
g5
sg13
I2271
sg14
g5
sg15
I61
sg16
I150458
sg17
g5
sg18
g19
(g23
S'\x15gj"z\xc4\xe1?'
p1192
tp1193
Rp1194
sg29
I700000
sg30
I1920055
sg31
I53
sg32
I15
sg33
I1248318
sg34
I309946
sg35
I1587421
sg36
g19
(g23
S',\x19\x9d\xeb\x16\x87T?'
p1195
tp1196
Rp1197
sg40
I671737
ssS'SAVAGE FRANK'
p1198
(dp1199
g3
g5
sg4
g5
sg6
g5
sg7
I00
sg8
I-121284
sg9
g5
sg11
g5
sg12
g5
sg13
g5
sg14
g5
sg15
g5
sg16
g5
sg17
I125034
sg18
g19
(g23
S'\x00\x00\x00\x00\x00\x00\x00\x00'
p1200
tp1201
Rp1202
sg29
g5
sg30
g5
sg31
g5
sg32
g5
sg33
g5
sg34
g5
sg35
I3750
sg36
g19
(g23
S'\x00\x00\x00\x00\x00\x00\x00\x00'
p1203
tp1204
Rp1205
sg40
g5
ssS'IZZO LAWRENCE L'
p1206
(dp1207
g3
I496
sg4
g5
sg6
I28093
sg7
I00
sg8
g5
sg9
S'larry.izzo@enron.com'
p1208
sg11
I312500
sg12
g5
sg13
I437
sg14
g5
sg15
I19
sg16
I1553729
sg17
g5
sg18
g19
(g23
S'9A\xcfd\x14p\xbf?'
p1209
tp1210
Rp1211
sg29
g5
sg30
I5819980
sg31
I28
sg32
I5
sg33
I3654808
sg34
I85274
sg35
I1979596
sg36
g19
(g23
S'\xe2{\x1fed\x87j?'
p1212
tp1213
Rp1214
sg40
I2165172
ssS'TILNEY ELIZABETH A'
p1215
(dp1216
g3
I460
sg4
g5
sg6
g5
sg7
I00
sg8
I-575000
sg9
S'elizabeth.tilney@enron.com'
p1217
sg11
I275000
sg12
g5
sg13
I379
sg14
g5
sg15
I19
sg16
I152055
sg17
g5
sg18
g19
(g23
S'\x00\x00\x00\x00\x00\x00\x00\x00'
p1218
tp1219
Rp1220
sg29
I300000
sg30
I1168042
sg31
I10
sg32
I11
sg33
I576792
sg34
I247338
sg35
I399393
sg36
g19
(g23
S'\x9b\\7\xed\t\xf4q?'
p1221
tp1222
Rp1223
sg40
I591250
ssS'MARTIN AMANDA K'
p1224
(dp1225
g3
I1522
sg4
I85430
sg6
I8211
sg7
I00
sg8
g5
sg9
S'a..martin@enron.com'
p1226
sg11
I5145434
sg12
g5
sg13
I477
sg14
g5
sg15
I230
sg16
I2818454
sg17
g5
sg18
g19
(g23
S'\xd5GS\xa4\x92`\xa2?'
p1227
tp1228
Rp1229
sg29
g5
sg30
I2070306
sg31
I8
sg32
I0
sg33
g5
sg34
I349487
sg35
I8407016
sg36
g19
(g23
S'\xc4\xe4\xcc\x82e\xe4G?'
p1230
tp1231
Rp1232
sg40
I2070306
ssS'BUY RICHARD B'
p1233
(dp1234
g3
I3523
sg4
I649584
sg6
g5
sg7
I00
sg8
I-694862
sg9
S'rick.buy@enron.com'
p1235
sg11
I769862
sg12
g5
sg13
I2333
sg14
g5
sg15
I1053
sg16
I400572
sg17
g5
sg18
g19
(g23
S'\x00\x00\x00\x00\x00\x00\x00\x00'
p1236
tp1237
Rp1238
sg29
I900000
sg30
I3444470
sg31
I156
sg32
I71
sg33
I901657
sg34
I330546
sg35
I2355702
sg36
g19
(g23
S'\x94o;\xe3\x80.j?'
p1239
tp1240
Rp1241
sg40
I2542813
ssS'GRAMM WENDY L'
p1242
(dp1243
g3
g5
sg4
g5
sg6
g5
sg7
I00
sg8
g5
sg9
g5
sg11
g5
sg12
g5
sg13
g5
sg14
g5
sg15
g5
sg16
g5
sg17
I119292
sg18
g19
(g23
S'\x00\x00\x00\x00\x00\x00\x00\x00'
p1244
tp1245
Rp1246
sg29
g5
sg30
g5
sg31
g5
sg32
g5
sg33
g5
sg34
g5
sg35
I119292
sg36
g19
(g23
S'\x00\x00\x00\x00\x00\x00\x00\x00'
p1247
tp1248
Rp1249
sg40
g5
ssS'CAUSEY RICHARD A'
p1250
(dp1251
g3
I1892
sg4
g5
sg6
I30674
sg7
I01
sg8
I-235000
sg9
S'richard.causey@enron.com'
p1252
sg11
I350000
sg12
g5
sg13
I1585
sg14
g5
sg15
I49
sg16
I307895
sg17
g5
sg18
g19
(g23
S'\xa8\x11\x8d\xfc\xbd)\xc1?'
p1253
tp1254
Rp1255
sg29
I1000000
sg30
I2502063
sg31
I58
sg32
I12
sg33
I2502063
sg34
I415189
sg35
I1868758
sg36
g19
(g23
S'\x00\x00\x00\x00\x00\x00\x00\x00'
p1256
tp1257
Rp1258
sg40
g5
ssS'TAYLOR MITCHELL S'
p1259
(dp1260
g3
I533
sg4
I227449
sg6
g5
sg7
I00
sg8
g5
sg9
S'mitchell.taylor@enron.com'
p1261
sg11
g5
sg12
g5
sg13
I300
sg14
g5
sg15
I29
sg16
g5
sg17
g5
sg18
g19
(g23
S'\x00\x00\x00\x00\x00\x00\x00\x00'
p1262
tp1263
Rp1264
sg29
I600000
sg30
I3745048
sg31
I0
sg32
I0
sg33
I563798
sg34
I265214
sg35
I1092663
sg36
g19
(g23
S'r^\xfe\x11\x8b\xa7\x81?'
p1265
tp1266
Rp1267
sg40
I3181250
ssS'DONAHUE JR JEFFREY M'
p1268
(dp1269
g3
I865
sg4
g5
sg6
I96268
sg7
I00
sg8
I-300000
sg9
S'jeff.donahue@enron.com'
p1270
sg11
g5
sg12
g5
sg13
I772
sg14
g5
sg15
I22
sg16
I891
sg17
g5
sg18
g19
(g23
S'\xfe\xdb\x0f,\xb6\xee\xda?'
p1271
tp1272
Rp1273
sg29
I800000
sg30
I1080988
sg31
I188
sg32
I11
sg33
I315068
sg34
I278601
sg35
I875760
sg36
g19
(g23
S'%7\x05\xae\x846e?'
p1274
tp1275
Rp1276
sg40
I765920
ssS'GLISAN JR BEN F'
p1277
(dp1278
g3
I873
sg4
g5
sg6
I125978
sg7
I01
sg8
g5
sg9
S'ben.glisan@enron.com'
p1279
sg11
I71023
sg12
g5
sg13
I874
sg14
g5
sg15
I16
sg16
I200308
sg17
g5
sg18
g19
(g23
S'~;<@E\x9f\xe1?'
p1280
tp1281
Rp1282
sg29
I600000
sg30
I778546
sg31
I52
sg32
I6
sg33
I393818
sg34
I274975
sg35
I1272284
sg36
g19
(g23
S'\xb4\xd5\xc3\x05\x91VM?'
p1283
tp1284
Rp1285
sg40
I384728
ss.